target datalayout = "e-m:e-p270:32:32-p271:32:32-p272:64:64-i64:64-i128:128-f80:128-n8:16:32:64-S128"
target triple = "x86_64-unknown-linux-gnu"

%"class.icu_75::LocalPointer" = type { %"class.icu_75::LocalPointerBase" }
%"class.icu_75::LocalPointerBase" = type { ptr }
%"class.icu_75::Locale" = type <{ %"class.icu_75::UObject", [12 x i8], [6 x i8], [4 x i8], [2 x i8], i32, [4 x i8], ptr, [157 x i8], [3 x i8], ptr, i8, [7 x i8] }>
%"class.icu_75::UObject" = type { ptr }

; Function Attrs: mustprogress nounwind uwtable
define linkonce_odr void @_ZN6icu_7516LocalPointerBaseINS_13ListFormatterEED2Ev(ptr noundef nonnull align 8 dereferenceable(8) %this) unnamed_addr #0 comdat align 2 {
entry:
  %this.addr = alloca ptr, align 8
  store ptr %this, ptr %this.addr, align 8
  ret void
}

; Function Attrs: mustprogress nounwind uwtable
define linkonce_odr void @_ZN6icu_7516LocalPointerBaseINS_13ListFormatterEEC2EPS1_(ptr noundef nonnull align 8 dereferenceable(8) %this, ptr noundef %p) unnamed_addr #0 comdat align 2 {
entry:
  %this.addr = alloca ptr, align 8
  %p.addr = alloca ptr, align 8
  store ptr %this, ptr %this.addr, align 8
  store ptr %p, ptr %p.addr, align 8
  %this1 = load ptr, ptr %this.addr, align 8
  %ptr = getelementptr inbounds %"class.icu_75::LocalPointerBase", ptr %this1, i32 0, i32 0
  %0 = load ptr, ptr %p.addr, align 8
  store ptr %0, ptr %ptr, align 8
  ret void
}

; Function Attrs: mustprogress nounwind uwtable
define linkonce_odr noundef ptr @_ZN6icu_7516LocalPointerBaseINS_13ListFormatterEE6orphanEv(ptr noundef nonnull align 8 dereferenceable(8) %this) #0 comdat align 2 {
entry:
  %this.addr = alloca ptr, align 8
  %p = alloca ptr, align 8
  store ptr %this, ptr %this.addr, align 8
  %this1 = load ptr, ptr %this.addr, align 8
  %ptr = getelementptr inbounds %"class.icu_75::LocalPointerBase", ptr %this1, i32 0, i32 0
  %0 = load ptr, ptr %ptr, align 8
  store ptr %0, ptr %p, align 8
  %ptr2 = getelementptr inbounds %"class.icu_75::LocalPointerBase", ptr %this1, i32 0, i32 0
  store ptr null, ptr %ptr2, align 8
  %1 = load ptr, ptr %p, align 8
  ret ptr %1
}

; Function Attrs: mustprogress nounwind uwtable
define linkonce_odr void @_ZN6icu_7512LocalPointerINS_13ListFormatterEED2Ev(ptr noundef nonnull align 8 dereferenceable(8) %this) unnamed_addr #0 comdat align 2 {
entry:
  %this.addr = alloca ptr, align 8
  store ptr %this, ptr %this.addr, align 8
  %this1 = load ptr, ptr %this.addr, align 8
  %ptr = getelementptr inbounds %"class.icu_75::LocalPointerBase", ptr %this1, i32 0, i32 0
  %0 = load ptr, ptr %ptr, align 8
  %isnull = icmp eq ptr %0, null
  br i1 %isnull, label %delete.end, label %delete.notnull

delete.notnull:                                   ; preds = %entry
  %vtable = load ptr, ptr %0, align 8
  %vfn = getelementptr inbounds ptr, ptr %vtable, i64 1
  %1 = load ptr, ptr %vfn, align 8
  call void %1(ptr noundef nonnull align 8 dereferenceable(24) %0) #8
  br label %delete.end

delete.end:                                       ; preds = %delete.notnull, %entry
  call void @_ZN6icu_7516LocalPointerBaseINS_13ListFormatterEED2Ev(ptr noundef nonnull align 8 dereferenceable(8) %this1) #8
  ret void
}

; Function Attrs: mustprogress uwtable
define linkonce_odr void @_ZN6icu_7512LocalPointerINS_13ListFormatterEEC2EPS1_(ptr noundef nonnull align 8 dereferenceable(8) %this, ptr noundef %p) unnamed_addr #1 comdat align 2 {
entry:
  %this.addr = alloca ptr, align 8
  %p.addr = alloca ptr, align 8
  store ptr %this, ptr %this.addr, align 8
  store ptr %p, ptr %p.addr, align 8
  %this1 = load ptr, ptr %this.addr, align 8
  %0 = load ptr, ptr %p.addr, align 8
  call void @_ZN6icu_7516LocalPointerBaseINS_13ListFormatterEEC2EPS1_(ptr noundef nonnull align 8 dereferenceable(8) %this1, ptr noundef %0)
  ret void
}

; Function Attrs: mustprogress nounwind uwtable
define internal noundef signext i8 @_ZL9U_FAILURE10UErrorCode(i32 noundef %code) #0 {
entry:
  %code.addr = alloca i32, align 4
  store i32 %code, ptr %code.addr, align 4
  %0 = load i32, ptr %code.addr, align 4
  %cmp = icmp sgt i32 %0, 0
  %conv = zext i1 %cmp to i8
  ret i8 %conv
}

; Function Attrs: mustprogress uwtable
define ptr @ulistfmt_open_75(ptr noundef %locale, ptr noundef %status) #1 personality ptr @__gxx_personality_v0 {
entry:
  %retval = alloca ptr, align 8
  %locale.addr = alloca ptr, align 8
  %status.addr = alloca ptr, align 8
  %listfmt = alloca %"class.icu_75::LocalPointer", align 8
  %ref.tmp = alloca %"class.icu_75::Locale", align 8
  %exn.slot = alloca ptr, align 8
  %ehselector.slot = alloca i32, align 4
  %cleanup.dest.slot = alloca i32, align 4
  store ptr %locale, ptr %locale.addr, align 8
  store ptr %status, ptr %status.addr, align 8
  %0 = load ptr, ptr %status.addr, align 8
  %1 = load i32, ptr %0, align 4
  %call = call noundef signext i8 @_ZL9U_FAILURE10UErrorCode(i32 noundef %1)
  %tobool = icmp ne i8 %call, 0
  br i1 %tobool, label %if.then, label %if.end

if.then:                                          ; preds = %entry
  store ptr null, ptr %retval, align 8
  br label %return

if.end:                                           ; preds = %entry
  %2 = load ptr, ptr %locale.addr, align 8
  call void @_ZN6icu_756LocaleC1EPKcS2_S2_S2_(ptr noundef nonnull align 8 dereferenceable(217) %ref.tmp, ptr noundef %2, ptr noundef null, ptr noundef null, ptr noundef null)
  %3 = load ptr, ptr %status.addr, align 8
  %call1 = invoke noundef ptr @_ZN6icu_7513ListFormatter14createInstanceERKNS_6LocaleER10UErrorCode(ptr noundef nonnull align 8 dereferenceable(217) %ref.tmp, ptr noundef nonnull align 4 dereferenceable(4) %3)
          to label %invoke.cont unwind label %lpad

invoke.cont:                                      ; preds = %if.end
  invoke void @_ZN6icu_7512LocalPointerINS_13ListFormatterEEC2EPS1_(ptr noundef nonnull align 8 dereferenceable(8) %listfmt, ptr noundef %call1)
          to label %invoke.cont2 unwind label %lpad

invoke.cont2:                                     ; preds = %invoke.cont
  call void @_ZN6icu_756LocaleD1Ev(ptr noundef nonnull align 8 dereferenceable(217) %ref.tmp) #8
  %4 = load ptr, ptr %status.addr, align 8
  %5 = load i32, ptr %4, align 4
  %call5 = invoke noundef signext i8 @_ZL9U_FAILURE10UErrorCode(i32 noundef %5)
          to label %invoke.cont4 unwind label %lpad3

invoke.cont4:                                     ; preds = %invoke.cont2
  %tobool6 = icmp ne i8 %call5, 0
  br i1 %tobool6, label %if.then7, label %if.end8

if.then7:                                         ; preds = %invoke.cont4
  store ptr null, ptr %retval, align 8
  store i32 1, ptr %cleanup.dest.slot, align 4
  br label %cleanup

lpad:                                             ; preds = %invoke.cont, %if.end
  %6 = landingpad { ptr, i32 }
          cleanup
  %7 = extractvalue { ptr, i32 } %6, 0
  store ptr %7, ptr %exn.slot, align 8
  %8 = extractvalue { ptr, i32 } %6, 1
  store i32 %8, ptr %ehselector.slot, align 4
  call void @_ZN6icu_756LocaleD1Ev(ptr noundef nonnull align 8 dereferenceable(217) %ref.tmp) #8
  br label %eh.resume

lpad3:                                            ; preds = %if.end8, %invoke.cont2
  %9 = landingpad { ptr, i32 }
          cleanup
  %10 = extractvalue { ptr, i32 } %9, 0
  store ptr %10, ptr %exn.slot, align 8
  %11 = extractvalue { ptr, i32 } %9, 1
  store i32 %11, ptr %ehselector.slot, align 4
  call void @_ZN6icu_7512LocalPointerINS_13ListFormatterEED2Ev(ptr noundef nonnull align 8 dereferenceable(8) %listfmt) #8
  br label %eh.resume

if.end8:                                          ; preds = %invoke.cont4
  %call10 = invoke noundef ptr @_ZN6icu_7516LocalPointerBaseINS_13ListFormatterEE6orphanEv(ptr noundef nonnull align 8 dereferenceable(8) %listfmt)
          to label %invoke.cont9 unwind label %lpad3

invoke.cont9:                                     ; preds = %if.end8
  store ptr %call10, ptr %retval, align 8
  store i32 1, ptr %cleanup.dest.slot, align 4
  br label %cleanup

cleanup:                                          ; preds = %invoke.cont9, %if.then7
  call void @_ZN6icu_7512LocalPointerINS_13ListFormatterEED2Ev(ptr noundef nonnull align 8 dereferenceable(8) %listfmt) #8
  br label %return

return:                                           ; preds = %cleanup, %if.then
  %12 = load ptr, ptr %retval, align 8
  ret ptr %12

eh.resume:                                        ; preds = %lpad3, %lpad
  %exn = load ptr, ptr %exn.slot, align 8
  %sel = load i32, ptr %ehselector.slot, align 4
  %lpad.val = insertvalue { ptr, i32 } poison, ptr %exn, 0
  %lpad.val11 = insertvalue { ptr, i32 } %lpad.val, i32 %sel, 1
  resume { ptr, i32 } %lpad.val11
}