; Function Attrs: mustprogress uwtable
define noundef ptr @ulistfmt_open_75(ptr noundef %locale, ptr noundef %status) local_unnamed_addr #1 personality ptr @__gxx_personality_v0 {
entry:
  %ref.tmp = alloca %"class.icu_75::Locale", align 8
  %0 = load i32, ptr %status, align 4
  %cmp.i = icmp slt i32 %0, 1
  br i1 %cmp.i, label %if.end, label %return

if.end:                                           ; preds = %entry
  call void @_ZN6icu_756LocaleC1EPKcS2_S2_S2_(ptr noundef nonnull align 8 dereferenceable(217) %ref.tmp, ptr noundef %locale, ptr noundef null, ptr noundef null, ptr noundef null)
  %call1 = invoke noundef ptr @_ZN6icu_7513ListFormatter14createInstanceERKNS_6LocaleER10UErrorCode(ptr noundef nonnull align 8 dereferenceable(217) %ref.tmp, ptr noundef nonnull align 4 dereferenceable(4) %status)
          to label %invoke.cont2 unwind label %lpad

invoke.cont2:                                     ; preds = %if.end
  call void @_ZN6icu_756LocaleD1Ev(ptr noundef nonnull align 8 dereferenceable(217) %ref.tmp) #10
  %1 = load i32, ptr %status, align 4
  %cmp.i3 = icmp slt i32 %1, 1
  br i1 %cmp.i3, label %return, label %cleanup

lpad:                                             ; preds = %if.end
  %2 = landingpad { ptr, i32 }
          cleanup
  call void @_ZN6icu_756LocaleD1Ev(ptr noundef nonnull align 8 dereferenceable(217) %ref.tmp) #10
  resume { ptr, i32 } %2

cleanup:                                          ; preds = %invoke.cont2
  %isnull.i = icmp eq ptr %call1, null
  br i1 %isnull.i, label %return, label %delete.notnull.i

delete.notnull.i:                                 ; preds = %cleanup
  %vtable.i = load ptr, ptr %call1, align 8
  %vfn.i = getelementptr inbounds i8, ptr %vtable.i, i64 8
  %3 = load ptr, ptr %vfn.i, align 8
  call void %3(ptr noundef nonnull align 8 dereferenceable(24) %call1) #10
  br label %return

return:                                           ; preds = %invoke.cont2, %delete.notnull.i, %cleanup, %entry
  %retval.1 = phi ptr [ null, %entry ], [ null, %cleanup ], [ null, %delete.notnull.i ], [ %call1, %invoke.cont2 ]
  ret ptr %retval.1
}